target datalayout = "e-m:e-p270:32:32-p271:32:32-p272:64:64-i64:64-i128:128-f80:128-n8:16:32:64-S128"
target triple = "x86_64-pc-linux-gnu"

%struct.DdManager = type { %struct.DdNode, ptr, ptr, ptr, ptr, ptr, ptr, ptr, i32, i32, double, double, double, i32, i32, i32, i32, i32, i32, ptr, ptr, %struct.DdSubtable, i32, i32, i32, i32, i32, i32, i32, double, i32, i32, i32, ptr, i64, double, i32, ptr, ptr, ptr, ptr, ptr, ptr, ptr, i32, ptr, ptr, ptr, ptr, ptr, ptr, i32, i32, i32, double, i32, i32, i32, i32, double, double, i32, i32, i32, i32, i32, i32, i32, i32, i32, ptr, ptr, i32, i32, i32, i32, i32, i32, ptr, ptr, ptr, ptr, ptr, ptr, ptr, ptr, i32, i64, i64, i64, i32, i64, i64, double, double, double, double, double, double, i32, ptr, ptr, i64 }
%struct.DdNode = type { i32, i32, ptr, %union.anon, i64 }
%union.anon = type { %struct.DdChildren }
%struct.DdChildren = type { ptr, ptr }
%struct.DdSubtable = type { ptr, i32, i32, i32, i32, i32, i32, i32, i32, i32, i32, i32 }

; Function Attrs: nounwind uwtable
define ptr @Kit_TruthToBdd_rec(ptr noundef %0, ptr noundef %1, i32 noundef %2, i32 noundef %3, i32 noundef %4, i32 noundef %5) #0 {
  %7 = alloca ptr, align 8
  %8 = alloca ptr, align 8
  %9 = alloca ptr, align 8
  %10 = alloca i32, align 4
  %11 = alloca i32, align 4
  %12 = alloca i32, align 4
  %13 = alloca i32, align 4
  %14 = alloca ptr, align 8
  %15 = alloca ptr, align 8
  %16 = alloca ptr, align 8
  %17 = alloca i32, align 4
  %18 = alloca i32, align 4
  %19 = alloca i32, align 4
  %20 = alloca i32, align 4
  store ptr %0, ptr %8, align 8, !tbaa !3
  store ptr %1, ptr %9, align 8, !tbaa !50
  store i32 %2, ptr %10, align 4, !tbaa !10
  store i32 %3, ptr %11, align 4, !tbaa !10
  store i32 %4, ptr %12, align 4, !tbaa !10
  store i32 %5, ptr %13, align 4, !tbaa !10
  call void @llvm.lifetime.start.p0(i64 8, ptr %14) #6
  call void @llvm.lifetime.start.p0(i64 8, ptr %15) #6
  call void @llvm.lifetime.start.p0(i64 8, ptr %16) #6
  call void @llvm.lifetime.start.p0(i64 4, ptr %17) #6
  %21 = load i32, ptr %11, align 4, !tbaa !10
  %22 = icmp sle i32 %21, 5
  br i1 %22, label %23, label %60

23:                                               ; preds = %6
  call void @llvm.lifetime.start.p0(i64 4, ptr %18) #6
  call void @llvm.lifetime.start.p0(i64 4, ptr %19) #6
  %24 = load i32, ptr %11, align 4, !tbaa !10
  %25 = shl i32 1, %24
  %26 = sub nsw i32 32, %25
  %27 = lshr i32 -1, %26
  store i32 %27, ptr %19, align 4, !tbaa !10
  %28 = load ptr, ptr %9, align 8, !tbaa !50
  %29 = load i32, ptr %10, align 4, !tbaa !10
  %30 = ashr i32 %29, 5
  %31 = sext i32 %30 to i64
  %32 = getelementptr inbounds i32, ptr %28, i64 %31
  %33 = load i32, ptr %32, align 4, !tbaa !10
  %34 = load i32, ptr %10, align 4, !tbaa !10
  %35 = and i32 %34, 31
  %36 = lshr i32 %33, %35
  %37 = load i32, ptr %19, align 4, !tbaa !10
  %38 = and i32 %36, %37
  store i32 %38, ptr %18, align 4, !tbaa !10
  %39 = load i32, ptr %18, align 4, !tbaa !10
  %40 = icmp eq i32 %39, 0
  br i1 %40, label %41, label %48

41:                                               ; preds = %23
  %42 = load ptr, ptr %8, align 8, !tbaa !3
  %43 = getelementptr inbounds nuw %struct.DdManager, ptr %42, i32 0, i32 1
  %44 = load ptr, ptr %43, align 8, !tbaa !25
  %45 = ptrtoint ptr %44 to i64
  %46 = xor i64 %45, 1
  %47 = inttoptr i64 %46 to ptr
  store ptr %47, ptr %7, align 8
  store i32 1, ptr %20, align 4
  br label %57

48:                                               ; preds = %23
  %49 = load i32, ptr %18, align 4, !tbaa !10
  %50 = load i32, ptr %19, align 4, !tbaa !10
  %51 = icmp eq i32 %49, %50
  br i1 %51, label %52, label %56

52:                                               ; preds = %48
  %53 = load ptr, ptr %8, align 8, !tbaa !3
  %54 = getelementptr inbounds nuw %struct.DdManager, ptr %53, i32 0, i32 1
  %55 = load ptr, ptr %54, align 8, !tbaa !25
  store ptr %55, ptr %7, align 8
  store i32 1, ptr %20, align 4
  br label %57

56:                                               ; preds = %48
  store i32 0, ptr %20, align 4
  br label %57

57:                                               ; preds = %56, %52, %41
  call void @llvm.lifetime.end.p0(i64 4, ptr %19) #6
  call void @llvm.lifetime.end.p0(i64 4, ptr %18) #6
  %58 = load i32, ptr %20, align 4
  switch i32 %58, label %112 [
    i32 0, label %59
  ]

59:                                               ; preds = %57
  br label %60

60:                                               ; preds = %59, %6
  %61 = load i32, ptr %13, align 4, !tbaa !10
  %62 = icmp ne i32 %61, 0
  br i1 %62, label %63, label %67

63:                                               ; preds = %60
  %64 = load i32, ptr %12, align 4, !tbaa !10
  %65 = load i32, ptr %11, align 4, !tbaa !10
  %66 = sub nsw i32 %64, %65
  br label %70

67:                                               ; preds = %60
  %68 = load i32, ptr %11, align 4, !tbaa !10
  %69 = sub nsw i32 %68, 1
  br label %70

70:                                               ; preds = %67, %63
  %71 = phi i32 [ %66, %63 ], [ %69, %67 ]
  store i32 %71, ptr %17, align 4, !tbaa !10
  %72 = load ptr, ptr %8, align 8, !tbaa !3
  %73 = load ptr, ptr %9, align 8, !tbaa !50
  %74 = load i32, ptr %10, align 4, !tbaa !10
  %75 = load i32, ptr %11, align 4, !tbaa !10
  %76 = sub nsw i32 %75, 1
  %77 = load i32, ptr %12, align 4, !tbaa !10
  %78 = load i32, ptr %13, align 4, !tbaa !10
  %79 = call ptr @Kit_TruthToBdd_rec(ptr noundef %72, ptr noundef %73, i32 noundef %74, i32 noundef %76, i32 noundef %77, i32 noundef %78)
  store ptr %79, ptr %14, align 8, !tbaa !12
  %80 = load ptr, ptr %14, align 8, !tbaa !12
  call void @Cudd_Ref(ptr noundef %80)
  %81 = load ptr, ptr %8, align 8, !tbaa !3
  %82 = load ptr, ptr %9, align 8, !tbaa !50
  %83 = load i32, ptr %10, align 4, !tbaa !10
  %84 = load i32, ptr %11, align 4, !tbaa !10
  %85 = sub nsw i32 %84, 1
  %86 = shl i32 1, %85
  %87 = add nsw i32 %83, %86
  %88 = load i32, ptr %11, align 4, !tbaa !10
  %89 = sub nsw i32 %88, 1
  %90 = load i32, ptr %12, align 4, !tbaa !10
  %91 = load i32, ptr %13, align 4, !tbaa !10
  %92 = call ptr @Kit_TruthToBdd_rec(ptr noundef %81, ptr noundef %82, i32 noundef %87, i32 noundef %89, i32 noundef %90, i32 noundef %91)
  store ptr %92, ptr %15, align 8, !tbaa !12
  %93 = load ptr, ptr %15, align 8, !tbaa !12
  call void @Cudd_Ref(ptr noundef %93)
  %94 = load ptr, ptr %8, align 8, !tbaa !3
  %95 = load ptr, ptr %8, align 8, !tbaa !3
  %96 = getelementptr inbounds nuw %struct.DdManager, ptr %95, i32 0, i32 41
  %97 = load ptr, ptr %96, align 8, !tbaa !51
  %98 = load i32, ptr %17, align 4, !tbaa !10
  %99 = sext i32 %98 to i64
  %100 = getelementptr inbounds ptr, ptr %97, i64 %99
  %101 = load ptr, ptr %100, align 8, !tbaa !12
  %102 = load ptr, ptr %15, align 8, !tbaa !12
  %103 = load ptr, ptr %14, align 8, !tbaa !12
  %104 = call ptr @Cudd_bddIte(ptr noundef %94, ptr noundef %101, ptr noundef %102, ptr noundef %103)
  store ptr %104, ptr %16, align 8, !tbaa !12
  %105 = load ptr, ptr %16, align 8, !tbaa !12
  call void @Cudd_Ref(ptr noundef %105)
  %106 = load ptr, ptr %8, align 8, !tbaa !3
  %107 = load ptr, ptr %14, align 8, !tbaa !12
  call void @Cudd_RecursiveDeref(ptr noundef %106, ptr noundef %107)
  %108 = load ptr, ptr %8, align 8, !tbaa !3
  %109 = load ptr, ptr %15, align 8, !tbaa !12
  call void @Cudd_RecursiveDeref(ptr noundef %108, ptr noundef %109)
  %110 = load ptr, ptr %16, align 8, !tbaa !12
  call void @Cudd_Deref(ptr noundef %110)
  %111 = load ptr, ptr %16, align 8, !tbaa !12
  store ptr %111, ptr %7, align 8
  store i32 1, ptr %20, align 4
  br label %112

112:                                              ; preds = %70, %57
  call void @llvm.lifetime.end.p0(i64 4, ptr %17) #6
  call void @llvm.lifetime.end.p0(i64 8, ptr %16) #6
  call void @llvm.lifetime.end.p0(i64 8, ptr %15) #6
  call void @llvm.lifetime.end.p0(i64 8, ptr %14) #6
  %113 = load ptr, ptr %7, align 8
  ret ptr %113
}