; Function Attrs: nounwind uwtable
define ptr @Kit_TruthToBdd_rec(ptr noundef %0, ptr noundef %1, i32 noundef %2, i32 noundef %3, i32 noundef %4, i32 noundef %5) local_unnamed_addr #0 {
  %7 = icmp slt i32 %3, 6
  br i1 %7, label %8, label %30

8:                                                ; preds = %6
  %.neg = shl nsw i32 -1, %3
  %9 = add nsw i32 %.neg, 32
  %10 = lshr i32 -1, %9
  %11 = ashr i32 %2, 5
  %12 = sext i32 %11 to i64
  %13 = getelementptr inbounds i32, ptr %1, i64 %12
  %14 = load i32, ptr %13, align 4, !tbaa !11
  %15 = and i32 %2, 31
  %16 = lshr i32 %14, %15
  %17 = and i32 %16, %10
  %18 = icmp eq i32 %17, 0
  br i1 %18, label %19, label %25

19:                                               ; preds = %8
  %20 = getelementptr inbounds nuw i8, ptr %0, i64 40
  %21 = load ptr, ptr %20, align 8, !tbaa !19
  %22 = ptrtoint ptr %21 to i64
  %23 = xor i64 %22, 1
  %24 = inttoptr i64 %23 to ptr
  br label %.thread

25:                                               ; preds = %8
  %26 = icmp eq i32 %17, %10
  br i1 %26, label %27, label %30

27:                                               ; preds = %25
  %28 = getelementptr inbounds nuw i8, ptr %0, i64 40
  %29 = load ptr, ptr %28, align 8, !tbaa !19
  br label %.thread

30:                                               ; preds = %25, %6
  %.not = icmp eq i32 %5, 0
  br i1 %.not, label %.split45, label %.split

.split:                                           ; preds = %30
  %31 = sub nsw i32 %4, %3
  %32 = add nsw i32 %3, -1
  %33 = tail call ptr @Kit_TruthToBdd_rec(ptr noundef %0, ptr noundef %1, i32 noundef %2, i32 noundef %32, i32 noundef %4, i32 noundef %5)
  tail call void @Cudd_Ref(ptr noundef %33) #6
  %34 = shl nuw i32 1, %32
  %35 = add nsw i32 %34, %2
  %36 = tail call ptr @Kit_TruthToBdd_rec(ptr noundef %0, ptr noundef %1, i32 noundef %35, i32 noundef %32, i32 noundef %4, i32 noundef %5)
  br label %42

.split45:                                         ; preds = %30
  %37 = add nsw i32 %3, -1
  %38 = tail call ptr @Kit_TruthToBdd_rec(ptr noundef %0, ptr noundef %1, i32 noundef %2, i32 noundef %37, i32 noundef %4, i32 noundef 0)
  tail call void @Cudd_Ref(ptr noundef %38) #6
  %39 = shl nuw i32 1, %37
  %40 = add nsw i32 %39, %2
  %41 = tail call ptr @Kit_TruthToBdd_rec(ptr noundef %0, ptr noundef %1, i32 noundef %40, i32 noundef %37, i32 noundef %4, i32 noundef 0)
  br label %42

42:                                               ; preds = %.split45, %.split
  %phi.call46 = phi ptr [ %36, %.split ], [ %41, %.split45 ]
  %phi.call = phi ptr [ %33, %.split ], [ %38, %.split45 ]
  %43 = phi i32 [ %31, %.split ], [ %37, %.split45 ]
  tail call void @Cudd_Ref(ptr noundef %phi.call46) #6
  %44 = getelementptr inbounds nuw i8, ptr %0, i64 344
  %45 = load ptr, ptr %44, align 8, !tbaa !42
  %46 = sext i32 %43 to i64
  %47 = getelementptr inbounds ptr, ptr %45, i64 %46
  %48 = load ptr, ptr %47, align 8, !tbaa !43
  %49 = tail call ptr @Cudd_bddIte(ptr noundef %0, ptr noundef %48, ptr noundef %phi.call46, ptr noundef %phi.call) #6
  tail call void @Cudd_Ref(ptr noundef %49) #6
  tail call void @Cudd_RecursiveDeref(ptr noundef %0, ptr noundef %phi.call) #6
  tail call void @Cudd_RecursiveDeref(ptr noundef %0, ptr noundef %phi.call46) #6
  tail call void @Cudd_Deref(ptr noundef %49) #6
  br label %.thread

.thread:                                          ; preds = %27, %19, %42
  %.1 = phi ptr [ %49, %42 ], [ %29, %27 ], [ %24, %19 ]
  ret ptr %.1
}